target datalayout = "e-m:e-p270:32:32-p271:32:32-p272:64:64-i64:64-i128:128-f80:128-n8:16:32:64-S128"
target triple = "x86_64-pc-linux-gnu"

%struct._object = type { %union.anon, ptr }
%union.anon = type { i64 }
%struct._ts = type { ptr, ptr, ptr, i64, %struct.anon.5, i32, i32, i32, i32, i32, i32, i32, i32, ptr, ptr, ptr, ptr, ptr, ptr, ptr, ptr, i32, ptr, i64, i64, ptr, i64, i32, ptr, ptr, ptr, i64, i64, ptr, ptr, ptr, %struct._err_stackitem, ptr, i64, ptr, ptr }
%struct.anon.5 = type { i32 }
%struct._err_stackitem = type { ptr, ptr }
%struct.anon = type { i32, i32 }

@_Py_tss_tstate = external thread_local global ptr, align 8
@.str.35 = private unnamed_addr constant [17 x i8] c"gc.get_referrers\00", align 1
@.str.36 = private unnamed_addr constant [4 x i8] c"(O)\00", align 1

; Function Attrs: alwaysinline nounwind uwtable
define internal i32 @_Py_IsImmortal(ptr noundef %0) #6 {
  %2 = alloca ptr, align 8
  store ptr %0, ptr %2, align 8, !tbaa !4
  %3 = load ptr, ptr %2, align 8, !tbaa !4
  %4 = getelementptr inbounds nuw %struct._object, ptr %3, i32 0, i32 0
  %5 = getelementptr inbounds nuw %struct.anon, ptr %4, i32 0, i32 0
  %6 = load i32, ptr %5, align 8, !tbaa !52
  %7 = icmp slt i32 %6, 0
  %8 = zext i1 %7 to i32
  ret i32 %8
}

; Function Attrs: inlinehint nounwind uwtable
define internal ptr @_PyThreadState_GET() #3 {
  %1 = call align 8 ptr @llvm.threadlocal.address.p0(ptr align 8 @_Py_tss_tstate)
  %2 = load ptr, ptr %1, align 8, !tbaa !23
  ret ptr %2
}

; Function Attrs: alwaysinline nounwind uwtable
define internal void @Py_DECREF(ptr noundef %0) #6 {
  %2 = alloca ptr, align 8
  store ptr %0, ptr %2, align 8, !tbaa !4
  %3 = load ptr, ptr %2, align 8, !tbaa !4
  %4 = call i32 @_Py_IsImmortal(ptr noundef %3)
  %5 = icmp ne i32 %4, 0
  br i1 %5, label %6, label %7

6:                                                ; preds = %1
  br label %16

7:                                                ; preds = %1
  %8 = load ptr, ptr %2, align 8, !tbaa !4
  %9 = getelementptr inbounds nuw %struct._object, ptr %8, i32 0, i32 0
  %10 = getelementptr inbounds nuw %struct.anon, ptr %9, i32 0, i32 0
  %11 = load i32, ptr %10, align 8, !tbaa !52
  %12 = add i32 %11, -1
  store i32 %12, ptr %10, align 8, !tbaa !52
  %13 = icmp eq i32 %12, 0
  br i1 %13, label %14, label %16

14:                                               ; preds = %7
  %15 = load ptr, ptr %2, align 8, !tbaa !4
  call void @_Py_Dealloc(ptr noundef %15)
  br label %16

16:                                               ; preds = %6, %14, %7
  ret void
}

; Function Attrs: inlinehint nounwind uwtable
define internal ptr @_PyInterpreterState_GET() #3 {
  %1 = alloca ptr, align 8
  call void @llvm.lifetime.start.p0(i64 8, ptr %1) #7
  %2 = call ptr @_PyThreadState_GET()
  store ptr %2, ptr %1, align 8, !tbaa !23
  %3 = load ptr, ptr %1, align 8, !tbaa !23
  %4 = getelementptr inbounds nuw %struct._ts, ptr %3, i32 0, i32 2
  %5 = load ptr, ptr %4, align 8, !tbaa !25
  call void @llvm.lifetime.end.p0(i64 8, ptr %1) #7
  ret ptr %5
}

; Function Attrs: inlinehint nounwind uwtable
define internal void @Py_XDECREF(ptr noundef %0) #3 {
  %2 = alloca ptr, align 8
  store ptr %0, ptr %2, align 8, !tbaa !4
  %3 = load ptr, ptr %2, align 8, !tbaa !4
  %4 = icmp ne ptr %3, null
  br i1 %4, label %5, label %7

5:                                                ; preds = %1
  %6 = load ptr, ptr %2, align 8, !tbaa !4
  call void @Py_DECREF(ptr noundef %6)
  br label %7

7:                                                ; preds = %5, %1
  ret void
}

; Function Attrs: nounwind uwtable
define internal ptr @gc_get_referrers_impl(ptr noundef %0, ptr noundef %1) #0 {
  %3 = alloca ptr, align 8
  %4 = alloca ptr, align 8
  %5 = alloca ptr, align 8
  %6 = alloca ptr, align 8
  store ptr %0, ptr %4, align 8, !tbaa !4
  store ptr %1, ptr %5, align 8, !tbaa !4
  %7 = load ptr, ptr %5, align 8, !tbaa !4
  %8 = call i32 (ptr, ptr, ...) @PySys_Audit(ptr noundef @.str.35, ptr noundef @.str.36, ptr noundef %7)
  %9 = icmp slt i32 %8, 0
  br i1 %9, label %10, label %11

10:                                               ; preds = %2
  store ptr null, ptr %3, align 8
  br label %16

11:                                               ; preds = %2
  call void @llvm.lifetime.start.p0(i64 8, ptr %6) #7
  %12 = call ptr @_PyInterpreterState_GET()
  store ptr %12, ptr %6, align 8, !tbaa !21
  %13 = load ptr, ptr %6, align 8, !tbaa !21
  %14 = load ptr, ptr %5, align 8, !tbaa !4
  %15 = call ptr @_PyGC_GetReferrers(ptr noundef %13, ptr noundef %14)
  store ptr %15, ptr %3, align 8
  call void @llvm.lifetime.end.p0(i64 8, ptr %6) #7
  br label %16

16:                                               ; preds = %11, %10
  %17 = load ptr, ptr %3, align 8
  ret ptr %17
}

; Function Attrs: nounwind uwtable
define internal ptr @gc_get_referrers(ptr noundef %0, ptr noundef %1, i64 noundef %2) #0 {
  %4 = alloca ptr, align 8
  %5 = alloca ptr, align 8
  %6 = alloca i64, align 8
  %7 = alloca ptr, align 8
  %8 = alloca ptr, align 8
  store ptr %0, ptr %4, align 8, !tbaa !4
  store ptr %1, ptr %5, align 8, !tbaa !11
  store i64 %2, ptr %6, align 8, !tbaa !13
  call void @llvm.lifetime.start.p0(i64 8, ptr %7) #7
  store ptr null, ptr %7, align 8, !tbaa !4
  call void @llvm.lifetime.start.p0(i64 8, ptr %8) #7
  store ptr null, ptr %8, align 8, !tbaa !4
  %9 = load ptr, ptr %5, align 8, !tbaa !11
  %10 = load i64, ptr %6, align 8, !tbaa !13
  %11 = call ptr @_PyTuple_FromArray(ptr noundef %9, i64 noundef %10)
  store ptr %11, ptr %8, align 8, !tbaa !4
  %12 = load ptr, ptr %8, align 8, !tbaa !4
  %13 = icmp eq ptr %12, null
  br i1 %13, label %14, label %15

14:                                               ; preds = %3
  br label %19

15:                                               ; preds = %3
  %16 = load ptr, ptr %4, align 8, !tbaa !4
  %17 = load ptr, ptr %8, align 8, !tbaa !4
  %18 = call ptr @gc_get_referrers_impl(ptr noundef %16, ptr noundef %17)
  store ptr %18, ptr %7, align 8, !tbaa !4
  br label %19

19:                                               ; preds = %15, %14
  %20 = load ptr, ptr %8, align 8, !tbaa !4
  call void @Py_XDECREF(ptr noundef %20)
  %21 = load ptr, ptr %7, align 8, !tbaa !4
  call void @llvm.lifetime.end.p0(i64 8, ptr %8) #7
  call void @llvm.lifetime.end.p0(i64 8, ptr %7) #7
  ret ptr %21
}