; Function Attrs: nounwind uwtable
define internal ptr @gc_get_referrers(ptr readnone captures(none) %0, ptr noundef %1, i64 noundef %2) #0 {
  %4 = tail call ptr @_PyTuple_FromArray(ptr noundef %1, i64 noundef %2) #5
  %5 = icmp eq ptr %4, null
  br i1 %5, label %.split6, label %.split

.split:                                           ; preds = %3
  %6 = tail call i32 (ptr, ptr, ...) @PySys_Audit(ptr noundef nonnull @.str.35, ptr noundef nonnull @.str.36, ptr noundef nonnull %4) #5
  %7 = icmp slt i32 %6, 0
  br i1 %7, label %gc_get_referrers_impl.exit, label %8

8:                                                ; preds = %.split
  %9 = tail call align 8 ptr @llvm.threadlocal.address.p0(ptr align 8 @_Py_tss_tstate)
  %10 = load ptr, ptr %9, align 8, !tbaa !4
  %11 = getelementptr inbounds nuw i8, ptr %10, i64 16
  %12 = load ptr, ptr %11, align 8, !tbaa !9
  %13 = tail call ptr @_PyGC_GetReferrers(ptr noundef %12, ptr noundef nonnull %4) #5
  br label %gc_get_referrers_impl.exit

gc_get_referrers_impl.exit:                       ; preds = %8, %.split
  %.0.i = phi ptr [ %13, %8 ], [ null, %.split ]
  %14 = load i32, ptr %4, align 8, !tbaa !43
  %.not.i.i = icmp sgt i32 %14, -1
  br i1 %.not.i.i, label %15, label %.split6

15:                                               ; preds = %gc_get_referrers_impl.exit
  %16 = add nsw i32 %14, -1
  store i32 %16, ptr %4, align 8, !tbaa !43
  %17 = icmp eq i32 %16, 0
  br i1 %17, label %18, label %.split6

18:                                               ; preds = %15
  tail call void @_Py_Dealloc(ptr noundef nonnull %4) #5
  br label %.split6

.split6:                                          ; preds = %18, %15, %gc_get_referrers_impl.exit, %3
  %.0 = phi ptr [ null, %3 ], [ %.0.i, %gc_get_referrers_impl.exit ], [ %.0.i, %15 ], [ %.0.i, %18 ]
  ret ptr %.0
}